(dp0
S'CTT'
p1
F0.1839323467230444
sS'ATG'
p2
F1.0
sS'AAG'
p3
F0.2236154649947753
sS'AAA'
p4
F1.0
sS'ATC'
p5
F0.126
sS'AAC'
p6
F0.16194331983805668
sS'ATA'
p7
F1.0
sS'AGG'
p8
F0.27044025157232704
sS'CCT'
p9
F0.8681318681318682
sS'ACT'
p10
F0.4907407407407407
sS'AGC'
p11
F0.19211822660098518
sS'ACA'
p12
F1.0
sS'AGA'
p13
F1.0
sS'CAT'
p14
F1.0
sS'AAT'
p15
F1.0
sS'ATT'
p16
F0.718
sS'CTG'
p17
F0.029598308668076112
sS'CTA'
p18
F0.12684989429175478
sS'CTC'
p19
F0.03805496828752643
sS'CAC'
p20
F0.16425120772946858
sS'ACG'
p21
F0.1712962962962963
sS'CAA'
p22
F1.0
sS'AGT'
p23
F1.0
sS'CCA'
p24
F1.0
sS'CCG'
p25
F0.0989010989010989
sS'CCC'
p26
F0.21978021978021978
sS'TAT'
p27
F1.0
sS'GGT'
p28
F0.9444444444444445
sS'TGT'
p29
F1.0
sS'CGA'
p30
F0.15094339622641506
sS'CAG'
p31
F0.1528925619834711
sS'TCT'
p32
F0.7241379310344827
sS'GAT'
p33
F1.0
sS'CGG'
p34
F0.018867924528301883
sS'TTT'
p35
F1.0
sS'TGC'
p36
F0.1513157894736842
sS'GGG'
p37
F0.2222222222222222
sS'GGA'
p38
F1.0
sS'TGG'
p39
F1.0
sS'GGC'
p40
F0.10317460317460317
sS'TAC'
p41
F0.12079207920792077
sS'GAG'
p42
F0.16828478964401294
sS'TCG'
p43
F0.14778325123152708
sS'TTA'
p44
F1.0
sS'GAC'
p45
F0.15467625899280574
sS'TCC'
p46
F0.25123152709359603
sS'GAA'
p47
F1.0
sS'TCA'
p48
F0.8177339901477831
sS'GCA'
p49
F1.0
sS'GTA'
p50
F1.0
sS'GCC'
p51
F0.25
sS'GTC'
p52
F0.15094339622641506
sS'GCG'
p53
F0.11904761904761903
sS'GTG'
p54
F0.3018867924528301
sS'TTC'
p55
F0.19559228650137742
sS'GTT'
p56
F0.9748427672955974
sS'GCT'
p57
F0.9761904761904759
sS'ACC'
p58
F0.22222222222222218
sS'TTG'
p59
F0.21987315010570826
sS'CGT'
p60
F0.18867924528301885
sS'CGC'
p61
F0.025157232704402517
s.